; Function Attrs: mustprogress uwtable
define internal fastcc void @_ZN11OpenImageIO6v3_1_0L17colorconvert_implIhhEEbRNS0_8ImageBufERKS2_PKNS0_14ColorProcessorEbNS0_3ROIEi(ptr noundef nonnull align 8 dereferenceable(16) %0, ptr noundef nonnull align 8 dereferenceable(16) %1, ptr noundef nonnull %2, i1 noundef zeroext %3, ptr noundef readonly byval(%"struct.OpenImageIO::v3_1_0::ROI") align 8 captures(none) %4, i32 noundef %5) unnamed_addr #5 personality ptr @__gxx_personality_v0 {
  %7 = alloca %"class.OpenImageIO::v3_1_0::paropt", align 8
  %8 = alloca %"class.std::function", align 8
  %9 = getelementptr inbounds nuw i8, ptr %4, i64 28
  %10 = load i32, ptr %9, align 4, !tbaa !414
  %11 = getelementptr inbounds nuw i8, ptr %4, i64 24
  %12 = load i32, ptr %11, align 8, !tbaa !416
  %13 = sub nsw i32 %10, %12
  %14 = icmp sgt i32 %13, 3
  %.sroa.speculated = tail call i32 @llvm.smin.i32(i32 %13, i32 4)
  %spec.select = and i1 %3, %14
  store i32 %5, ptr %7, align 8, !tbaa !392
  %15 = getelementptr inbounds nuw i8, ptr %7, i64 4
  store i16 0, ptr %15, align 4, !tbaa !397
  %16 = getelementptr inbounds nuw i8, ptr %7, i64 6
  store i16 1, ptr %16, align 2, !tbaa !398
  %17 = getelementptr inbounds nuw i8, ptr %7, i64 8
  store i64 1024, ptr %17, align 8, !tbaa !399
  %18 = getelementptr inbounds nuw i8, ptr %7, i64 16
  store ptr null, ptr %18, align 8, !tbaa !400
  %19 = getelementptr inbounds nuw i8, ptr %7, i64 24
  store i8 0, ptr %19, align 8, !tbaa !401
  %20 = zext i1 %spec.select to i8
  %21 = getelementptr inbounds nuw i8, ptr %8, i64 16
  %22 = getelementptr inbounds nuw i8, ptr %8, i64 24
  %23 = getelementptr inbounds nuw i8, ptr %8, i64 8
  store i64 0, ptr %23, align 8
  %24 = tail call noalias noundef nonnull dereferenceable(32) ptr @_Znwm(i64 noundef 32) #38
  store i8 %20, ptr %24, align 16, !tbaa !14
  %.sroa.510.0..sroa_idx = getelementptr inbounds nuw i8, ptr %24, i64 4
  store i32 %.sroa.speculated, ptr %.sroa.510.0..sroa_idx, align 4, !tbaa !12
  %.sroa.6.0..sroa_idx = getelementptr inbounds nuw i8, ptr %24, i64 8
  store ptr %2, ptr %.sroa.6.0..sroa_idx, align 8, !tbaa !250
  %.sroa.7.0..sroa_idx = getelementptr inbounds nuw i8, ptr %24, i64 16
  store ptr %1, ptr %.sroa.7.0..sroa_idx, align 16, !tbaa !402
  %.sroa.8.0..sroa_idx = getelementptr inbounds nuw i8, ptr %24, i64 24
  store ptr %0, ptr %.sroa.8.0..sroa_idx, align 8, !tbaa !402
  store ptr %24, ptr %8, align 8, !tbaa !409
  store ptr @_ZNSt17_Function_handlerIFvN11OpenImageIO6v3_1_03ROIEEZNS1_L17colorconvert_implIhhEEbRNS1_8ImageBufERKS5_PKNS1_14ColorProcessorEbS2_iEUlS2_E_E9_M_invokeERKSt9_Any_dataOS2_, ptr %22, align 8, !tbaa !410
  store ptr @_ZNSt17_Function_handlerIFvN11OpenImageIO6v3_1_03ROIEEZNS1_L17colorconvert_implIhhEEbRNS1_8ImageBufERKS5_PKNS1_14ColorProcessorEbS2_iEUlS2_E_E10_M_managerERSt9_Any_dataRKSE_St18_Manager_operation, ptr %21, align 8, !tbaa !413
  invoke void @_ZN11OpenImageIO6v3_1_012ImageBufAlgo14parallel_imageENS0_3ROIENS0_6paroptESt8functionIFvS2_EE(ptr noundef nonnull byval(%"struct.OpenImageIO::v3_1_0::ROI") align 8 %4, ptr noundef nonnull byval(%"class.OpenImageIO::v3_1_0::paropt") align 8 %7, ptr noundef nonnull %8)
          to label %25 unwind label %32

25:                                               ; preds = %6
  %26 = load ptr, ptr %21, align 8, !tbaa !413
  %.not.i = icmp eq ptr %26, null
  br i1 %.not.i, label %_ZNSt14_Function_baseD2Ev.exit, label %27

27:                                               ; preds = %25
  %28 = invoke noundef zeroext i1 %26(ptr noundef nonnull align 8 dereferenceable(32) %8, ptr noundef nonnull align 8 dereferenceable(32) %8, i32 noundef 3)
          to label %_ZNSt14_Function_baseD2Ev.exit unwind label %29

29:                                               ; preds = %27
  %30 = landingpad { ptr, i32 }
          catch ptr null
  %31 = extractvalue { ptr, i32 } %30, 0
  call void @__clang_call_terminate(ptr %31) #37
  unreachable

_ZNSt14_Function_baseD2Ev.exit:                   ; preds = %25, %27
  ret void

32:                                               ; preds = %6
  %33 = landingpad { ptr, i32 }
          cleanup
  %34 = load ptr, ptr %21, align 8, !tbaa !413
  %.not.i8 = icmp eq ptr %34, null
  br i1 %.not.i8, label %_ZNSt14_Function_baseD2Ev.exit9, label %35

35:                                               ; preds = %32
  %36 = invoke noundef zeroext i1 %34(ptr noundef nonnull align 8 dereferenceable(32) %8, ptr noundef nonnull align 8 dereferenceable(32) %8, i32 noundef 3)
          to label %_ZNSt14_Function_baseD2Ev.exit9 unwind label %37

37:                                               ; preds = %35
  %38 = landingpad { ptr, i32 }
          catch ptr null
  %39 = extractvalue { ptr, i32 } %38, 0
  call void @__clang_call_terminate(ptr %39) #37
  unreachable

_ZNSt14_Function_baseD2Ev.exit9:                  ; preds = %32, %35
  resume { ptr, i32 } %33
}